#SYMBOLS
Index	Identifier	Type	Flag	Data	Size	RefCount
0	__DU0lineDetect	5	1	0	4	3
1	__D0lineDetect	6	1	4	4	7
2	__DU0cupDetect	5	1	8	4	2
3	__D0main	6	1	12	4	23
4	__D0openClaws	6	1	16	4	2
5	__D0moveForward	6	1	20	4	4
6	__DU0main	5	1	24	4	16
7	__D0cupDetect	6	1	28	4	6
8	__CLSRMutex1	9	0	32	4	2
9	__CLSWMutex1	9	0	36	4	2
10	__CLSCSMutex1	9	0	40	4	2
11	__TextOutMutex	9	0	44	4	16
12	__D0closeClaws	6	1	48	4	2
13	__D0backUp	6	1	52	4	4
14	__RLSBmutex1	9	0	56	4	2
15	__signed_stack_002lineDetect	6	1	60	4	2
16	__signed_stack_001lineDetect	6	1	64	4	4
17	__signed_stack_001cupDetect	6	1	68	4	2
18	__signed_stack_001main	6	1	72	4	14
19	__Wait_7qG2_ms_7qG2_000_inline_main	5	1	76	4	6
20	__signed_stack_001openClaws	6	1	80	4	2
21	__signed_stack_002main	6	1	84	4	14
22	__signed_stack_001closeClaws	6	1	88	4	2
23	__DU0SetSensorLight_inline_initializeSensors	5	1	92	4	5
24	__D0SetSensorLight_inline_initializeSensors	6	1	96	4	2
25	__D0stopMoving	6	1	100	4	4
26	__D0SetSensorLowspeed_inline_initializeSensors	6	1	104	4	2
27	__DU0SetSensorLowspeed_inline_SetSensorUltrasonic	5	1	108	4	5
28	__D0SetSensorLowspeed_inline_SetSensorUltrasonic	6	1	112	4	2
29	__DU0SetSensorLowspeed_inline_initializeSensors	5	1	116	4	5
30	__rotate_angle0	6	1	120	4	6
31	__ResetSensorMutex	9	0	124	4	6
32	__rotateMutex0	9	0	128	4	4
33	__rotate_theAngle0	5	1	132	4	2
34	__main_7qG2_state_7qG2_000	4	1	136	2	4
35	__main_7qG2_searchState_7qG2_000	4	1	138	2	2
36	__main_7qG2_grabState_7qG2_000	4	1	140	2	2
37	__rotate_RotCount0	4	1	142	2	4
38	__rotate_OldRotCount0	4	1	144	2	2
39	__SetSensorLight_7qG2_port_7qG2_000_inline_initializeSensors	1	1	146	1	4
40	__ResetSensor_7qG2_port_7qG2_000_inline_SetSensorLowspeed_inline_initializeSensors	1	1	147	1	2
41	__SetSensorMode_7qG2_mode_7qG2_000_inline_SetSensorLowspeed_inline_initializeSensors	1	1	148	1	2
42	__SetSensorLight_7qG2_bActive_7qG2_000_inline_initializeSensors	1	1	149	1	2
43	__SetSensorMode_7qG2_port_7qG2_000_inline_SetSensorLight_inline_initializeSensors	1	1	150	1	2
44	__SetSensorType_7qG2_type_7qG2_000_inline_SetSensorLight_inline_initializeSensors	1	1	151	1	2
45	__SetSensorType_7qG2_port_7qG2_000_inline_SetSensorLight_inline_initializeSensors	1	1	152	1	2
46	__SetSensorMode_7qG2_port_7qG2_000_inline_SetSensorLowspeed_inline_initializeSensors	1	1	153	1	2
47	__SetSensorMode_7qG2_port_7qG2_000_inline_SetSensorLowspeed_inline_SetSensorUltrasonic_inline_initializeSensors	1	1	154	1	2
48	__SetSensorMode_7qG2_mode_7qG2_000_inline_SetSensorLowspeed_inline_SetSensorUltrasonic_inline_initializeSensors	1	1	155	1	2
49	__SetSensorType_7qG2_type_7qG2_000_inline_SetSensorLowspeed_inline_SetSensorUltrasonic_inline_initializeSensors	1	1	156	1	2
50	__SetSensorLowspeed_7qG2_bIsPowered_7qG2_000_inline_SetSensorUltrasonic_inline_initializeSensors	1	1	157	1	2
51	__SetSensorType_7qG2_port_7qG2_000_inline_SetSensorLowspeed_inline_SetSensorUltrasonic_inline_initializeSensors	1	1	158	1	2
52	__SetSensorType_7qG2_port_7qG2_000_inline_SetSensorLowspeed_inline_initializeSensors	1	1	159	1	2
53	__SetSensorType_7qG2_type_7qG2_000_inline_SetSensorLowspeed_inline_initializeSensors	1	1	160	1	2
54	__SetSensorLowspeed_7qG2_bIsPowered_7qG2_000_inline_initializeSensors	1	1	161	1	2
55	__ResetSensor_7qG2_port_7qG2_000_inline_SetSensorLowspeed_inline_SetSensorUltrasonic_inline_initializeSensors	1	1	162	1	2
56	__SetSensorLowspeed_7qG2_port_7qG2_000_inline_initializeSensors	1	1	163	1	4
57	__constValNeg60	2	0	164	1	1
58	____initialize_global_data_return	1	1	165	1	3
59	__closeClaws_return	1	1	166	1	4
60	__cupDetect_return	1	1	167	1	4
61	__openClaws_return	1	1	168	1	4
62	__main_7qG2_stateMachineRunning_7qG2_000	1	1	169	1	4
63	__constValNeg1	2	0	170	1	1
64	__main_7qG2_lineDetected_7qG2_002	1	1	171	1	2
65	__OnRev_Tmp	2	1	172	1	4
66	__main_7qG2_temp1_7qG2_002	1	1	173	1	3
67	__main_7qG2_temp2_7qG2_002	1	1	174	1	3
68	__lineDetect_return	1	1	175	1	5
69	__SetSensorMode_7qG2_mode_7qG2_000_inline_initializeSensors	1	1	176	1	2
70	__moveForward_7qG2_speed_7qG2_000	2	1	177	1	5
71	__SetSensorMode_7qG2_port_7qG2_000_inline_initializeSensors	1	1	178	1	2
72	__SetSensorMode_7qG2_mode_7qG2_000_inline_SetSensorLight_inline_initializeSensors	1	1	179	1	2
73	__ResetSensor_7qG2_port_7qG2_000_inline_SetSensorLight_inline_initializeSensors	1	1	180	1	2
74	__moveForward_return	1	1	181	1	5
75	__backUp_return	1	1	182	1	3
76	__stopMoving_return	1	1	183	1	4
77	__backUp_7qG2_speed_7qG2_000	2	1	184	1	3
78	__constVal96	2	0	185	1	8
79	__constVal63	2	0	186	1	6
80	__SetSensorLowspeed_7qG2_port_7qG2_000_inline_SetSensorUltrasonic_inline_initializeSensors	1	1	187	1	4
81	__constVal2	2	0	188	1	6
82	__PFTmp	1	1	189	1	1
83	__RLSBytesCount1	1	1	190	1	7
84	__RLSBIterations1	1	1	191	1	4
85	__constVal15	2	0	192	1	3
86	____RotateMotor0_return	1	1	193	1	4
87	__rotate_theTurnPct0	2	1	194	1	4
88	__constVal32	2	0	195	1	23
89	____RotateMotor0_sign_tmp	2	1	196	1	4
90	__LSWriteOptions1	1	1	197	1	1
91	__constVal0	2	1	198	1	30
92	__constVal3	2	0	199	1	7
93	__constVal50	2	0	200	1	1
94	____ResetSensorSubroutine_return	1	1	201	1	5
95	__ResetSensorTmp	1	1	202	1	2
96	__RLSBResult1	2	1	203	1	7
97	____ReadLSBytes1_return	1	1	204	1	3
98	__constVal1	2	0	205	1	15
99	__rotate_turnpct0	2	1	206	1	4
100	__rotate_stop0	1	1	207	1	3
101	__rotate_theOM0	1	1	208	1	7
102	__rotate_theUF0	1	1	209	1	6
103	__rotate_sync0	1	1	210	1	3
104	__initializeSensors_return	1	1	211	1	3
105	__SetSensorUltrasonic_7qG2_port_7qG2_000_inline_initializeSensors	1	1	212	1	2
106	__rotate_firstPort0	1	1	213	1	5
107	__rotate_power0	1	1	214	1	5
108	__rotate_theRVD0	1	1	215	1	3
109	__rotate_theRVI0	1	1	216	1	3
110	__rotate_rs0	1	1	217	1	2
111	__ResetSensorPort	1	1	218	1	5
112	__rotate_theRM0	1	1	219	1	4
113	__rotate_thePower0	2	1	220	1	4
114	__rotate_theRVP0	1	1	221	1	3
115	__rotate_theRS0	1	1	222	1	3
116	__CLSWArgs1	8	0	4	12	5
117	__CLSWArgs1.Result	2	1	224	1	5
118	__CLSWArgs1.Port	1	1	225	1	5
119	__CLSWArgs1.Buffer	7	0	226	4	5
120	__CLSWArgs1.Buffer.Buffer_type	1	0	0	1	0
121	__CLSWArgs1.ReturnLen	1	1	228	1	5
122	__TextOutArgs	8	0	4	16	48
123	__TextOutArgs.Result	2	1	232	1	48
124	__TextOutArgs.Location	8	0	2	4	48
125	__TextOutArgs.Location.X	4	1	236	2	48
126	__TextOutArgs.Location.Y	4	1	238	2	48
127	__TextOutArgs.Text	7	0	240	4	48
128	__TextOutArgs.Text.Text_type	1	0	0	1	0
129	__TextOutArgs.Options	5	1	244	4	48
130	__CLSRArgs1	8	0	4	12	5
131	__CLSRArgs1.Result	2	1	248	1	5
132	__CLSRArgs1.Port	1	1	249	1	5
133	__CLSRArgs1.Buffer	7	0	250	4	5
134	__CLSRArgs1.Buffer.Buffer_type	1	0	0	1	0
135	__CLSRArgs1.BufferLen	1	1	252	1	5
136	__CLSCSArgs1	8	0	3	4	4
137	__CLSCSArgs1.Result	2	1	256	1	4
138	__CLSCSArgs1.Port	1	1	257	1	4
139	__CLSCSArgs1.BytesReady	1	1	258	1	4
140	__constStr0015	7	0	260	4	1
141	__constStr0015.__constStr0015_type	1	1	0	1	0
142	__constStr0016	7	0	262	4	1
143	__constStr0016.__constStr0016_type	1	1	0	1	0
144	__constStr0014	7	0	264	4	1
145	__constStr0014.__constStr0014_type	1	1	0	1	0
146	__constStr0013	7	0	266	4	1
147	__constStr0013.__constStr0013_type	1	1	0	1	0
148	__RLSReadBuf1	7	0	268	4	8
149	__RLSReadBuf1.__RLSReadBuf1_type	1	0	0	1	0
150	__RLSLastGoodRead1	7	0	270	4	2
151	__RLSLastGoodRead1.__RLSLastGoodRead1_type	1	0	0	1	0
152	__rotate_ports0	7	0	272	4	7
153	__rotate_ports0.__rotate_ports0_type	1	0	0	1	0
154	__strbufmain	7	0	274	4	14
155	__strbufmain.__strbufmain_type	1	0	0	1	0
156	__constStr0011	7	0	276	4	1
157	__constStr0011.__constStr0011_type	1	1	0	1	0
158	__constStr0012	7	0	278	4	1
159	__constStr0012.__constStr0012_type	1	1	0	1	0
160	__RLSBbufLSWrite1	7	0	280	4	1
161	__RLSBbufLSWrite1.__RLSBbufLSWrite1_type	1	0	0	1	0
162	__constStr0010	7	0	282	4	1
163	__constStr0010.__constStr0010_type	1	1	0	1	0
#SOURCES
Clump	Line	PC	Source
0	87	0	#line 87 "C:\Users\Lara\Documents\Classes2018\NXC_Code\Main.nxc"
0	88	0		subcall __initialize_global_data, ____initialize_global_data_return
0	87	2	#line 87 "C:\Users\Lara\Documents\Classes2018\NXC_Code\Main.nxc"
0	87	2	#line 87 "C:\Users\Lara\Documents\Classes2018\NXC_Code\Main.nxc"
0	88	2		set __signed_stack_001main, 0
0	87	5	#line 87 "C:\Users\Lara\Documents\Classes2018\NXC_Code\Main.nxc"
0	87	5	#line 87 "C:\Users\Lara\Documents\Classes2018\NXC_Code\Main.nxc"
0	88	5		set __signed_stack_002main, 60
0	87	8	#line 87 "C:\Users\Lara\Documents\Classes2018\NXC_Code\Main.nxc"
0	87	8	#line 87 "C:\Users\Lara\Documents\Classes2018\NXC_Code\Main.nxc"
0	88	8		strcat __strbufmain, __constStr0010
0	88	12	#line 88 "C:\Users\Lara\Documents\Classes2018\NXC_Code\Main.nxc"
0	89	12		acquire __TextOutMutex
0	88	13	#line 88 "C:\Users\Lara\Documents\Classes2018\NXC_Code\Main.nxc"
0	89	13		mov __TextOutArgs.Location.X, __signed_stack_001main
0	88	15	#line 88 "C:\Users\Lara\Documents\Classes2018\NXC_Code\Main.nxc"
0	89	15		mov __TextOutArgs.Location.Y, __signed_stack_002main
0	88	17	#line 88 "C:\Users\Lara\Documents\Classes2018\NXC_Code\Main.nxc"
0	89	17		set __TextOutArgs.Options, 0
0	88	20	#line 88 "C:\Users\Lara\Documents\Classes2018\NXC_Code\Main.nxc"
0	89	20		mov __TextOutArgs.Text, __strbufmain
0	88	22	#line 88 "C:\Users\Lara\Documents\Classes2018\NXC_Code\Main.nxc"
0	89	22		syscall 13, __TextOutArgs
0	88	25	#line 88 "C:\Users\Lara\Documents\Classes2018\NXC_Code\Main.nxc"
0	89	25		mov __D0main, __TextOutArgs.Result
0	88	27	#line 88 "C:\Users\Lara\Documents\Classes2018\NXC_Code\Main.nxc"
0	89	27		release __TextOutMutex
0	88	28	#line 88 "C:\Users\Lara\Documents\Classes2018\NXC_Code\Main.nxc"
0	88	28	#line 88 "C:\Users\Lara\Documents\Classes2018\NXC_Code\Main.nxc"
0	89	28		set __signed_stack_001main, 0
0	88	31	#line 88 "C:\Users\Lara\Documents\Classes2018\NXC_Code\Main.nxc"
0	88	31	#line 88 "C:\Users\Lara\Documents\Classes2018\NXC_Code\Main.nxc"
0	89	31		set __signed_stack_002main, 50
0	88	34	#line 88 "C:\Users\Lara\Documents\Classes2018\NXC_Code\Main.nxc"
0	88	34	#line 88 "C:\Users\Lara\Documents\Classes2018\NXC_Code\Main.nxc"
0	89	34		strcat __strbufmain, __constStr0011
0	89	38	#line 89 "C:\Users\Lara\Documents\Classes2018\NXC_Code\Main.nxc"
0	90	38		acquire __TextOutMutex
0	89	39	#line 89 "C:\Users\Lara\Documents\Classes2018\NXC_Code\Main.nxc"
0	90	39		mov __TextOutArgs.Location.X, __signed_stack_001main
0	89	41	#line 89 "C:\Users\Lara\Documents\Classes2018\NXC_Code\Main.nxc"
0	90	41		mov __TextOutArgs.Location.Y, __signed_stack_002main
0	89	43	#line 89 "C:\Users\Lara\Documents\Classes2018\NXC_Code\Main.nxc"
0	90	43		set __TextOutArgs.Options, 0
0	89	46	#line 89 "C:\Users\Lara\Documents\Classes2018\NXC_Code\Main.nxc"
0	90	46		mov __TextOutArgs.Text, __strbufmain
0	89	48	#line 89 "C:\Users\Lara\Documents\Classes2018\NXC_Code\Main.nxc"
0	90	48		syscall 13, __TextOutArgs
0	89	51	#line 89 "C:\Users\Lara\Documents\Classes2018\NXC_Code\Main.nxc"
0	90	51		mov __D0main, __TextOutArgs.Result
0	89	53	#line 89 "C:\Users\Lara\Documents\Classes2018\NXC_Code\Main.nxc"
0	90	53		release __TextOutMutex
0	89	54	#line 89 "C:\Users\Lara\Documents\Classes2018\NXC_Code\Main.nxc"
0	89	54	#line 89 "C:\Users\Lara\Documents\Classes2018\NXC_Code\Main.nxc"
0	90	54		set __signed_stack_001main, 0
0	89	57	#line 89 "C:\Users\Lara\Documents\Classes2018\NXC_Code\Main.nxc"
0	89	57	#line 89 "C:\Users\Lara\Documents\Classes2018\NXC_Code\Main.nxc"
0	90	57		set __signed_stack_002main, 40
0	89	60	#line 89 "C:\Users\Lara\Documents\Classes2018\NXC_Code\Main.nxc"
0	89	60	#line 89 "C:\Users\Lara\Documents\Classes2018\NXC_Code\Main.nxc"
0	90	60		strcat __strbufmain, __constStr0012
0	91	64	#line 91 "C:\Users\Lara\Documents\Classes2018\NXC_Code\Main.nxc"
0	92	64		acquire __TextOutMutex
0	91	65	#line 91 "C:\Users\Lara\Documents\Classes2018\NXC_Code\Main.nxc"
0	92	65		mov __TextOutArgs.Location.X, __signed_stack_001main
0	91	67	#line 91 "C:\Users\Lara\Documents\Classes2018\NXC_Code\Main.nxc"
0	92	67		mov __TextOutArgs.Location.Y, __signed_stack_002main
0	91	69	#line 91 "C:\Users\Lara\Documents\Classes2018\NXC_Code\Main.nxc"
0	92	69		set __TextOutArgs.Options, 0
0	91	72	#line 91 "C:\Users\Lara\Documents\Classes2018\NXC_Code\Main.nxc"
0	92	72		mov __TextOutArgs.Text, __strbufmain
0	91	74	#line 91 "C:\Users\Lara\Documents\Classes2018\NXC_Code\Main.nxc"
0	92	74		syscall 13, __TextOutArgs
0	91	77	#line 91 "C:\Users\Lara\Documents\Classes2018\NXC_Code\Main.nxc"
0	92	77		mov __D0main, __TextOutArgs.Result
0	91	79	#line 91 "C:\Users\Lara\Documents\Classes2018\NXC_Code\Main.nxc"
0	92	79		release __TextOutMutex
0	91	80	#line 91 "C:\Users\Lara\Documents\Classes2018\NXC_Code\Main.nxc"
0	93	80	#line 93 "C:\Users\Lara\Documents\Classes2018\NXC_Code\Main.nxc"
0	94	80		subcall initializeSensors, __initializeSensors_return
0	93	82	#line 93 "C:\Users\Lara\Documents\Classes2018\NXC_Code\Main.nxc"
0	94	82	#line 94 "C:\Users\Lara\Documents\Classes2018\NXC_Code\Main.nxc"
0	95	82		set __main_7qG2_searchState_7qG2_000, 1
0	94	85	#line 94 "C:\Users\Lara\Documents\Classes2018\NXC_Code\Main.nxc"
0	95	85	#line 95 "C:\Users\Lara\Documents\Classes2018\NXC_Code\Main.nxc"
0	96	85		set __main_7qG2_grabState_7qG2_000, 2
0	95	88	#line 95 "C:\Users\Lara\Documents\Classes2018\NXC_Code\Main.nxc"
0	97	88	#line 97 "C:\Users\Lara\Documents\Classes2018\NXC_Code\Main.nxc"
0	97	88	#line 97 "C:\Users\Lara\Documents\Classes2018\NXC_Code\Main.nxc"
0	98	88	#line 98 "C:\Users\Lara\Documents\Classes2018\NXC_Code\Main.nxc"
0	99	88		mov __main_7qG2_state_7qG2_000, __main_7qG2_searchState_7qG2_000
0	98	90	#line 98 "C:\Users\Lara\Documents\Classes2018\NXC_Code\Main.nxc"
0	100	90	#line 100 "C:\Users\Lara\Documents\Classes2018\NXC_Code\Main.nxc"
0	101	90		set __main_7qG2_stateMachineRunning_7qG2_000, 1
0	100	93	#line 100 "C:\Users\Lara\Documents\Classes2018\NXC_Code\Main.nxc"
0	100	93	#line 100 "C:\Users\Lara\Documents\Classes2018\NXC_Code\Main.nxc"
0	101	93		mov __DU0main, __main_7qG2_stateMachineRunning_7qG2_000
0	102	95	#line 102 "C:\Users\Lara\Documents\Classes2018\NXC_Code\Main.nxc"
0	103	95		tst 5, __D0main, __DU0main
0	102	98	#line 102 "C:\Users\Lara\Documents\Classes2018\NXC_Code\Main.nxc"
0	103	98		brtst 4, __ASM_Label_572, __D0main
0	102	101	#line 102 "C:\Users\Lara\Documents\Classes2018\NXC_Code\Main.nxc"
0	103	101		set __signed_stack_001main, 0
0	102	104	#line 102 "C:\Users\Lara\Documents\Classes2018\NXC_Code\Main.nxc"
0	102	104	#line 102 "C:\Users\Lara\Documents\Classes2018\NXC_Code\Main.nxc"
0	103	104		set __signed_stack_002main, 10
0	102	107	#line 102 "C:\Users\Lara\Documents\Classes2018\NXC_Code\Main.nxc"
0	102	107	#line 102 "C:\Users\Lara\Documents\Classes2018\NXC_Code\Main.nxc"
0	103	107		strcat __strbufmain, __constStr0013
0	104	111	#line 104 "C:\Users\Lara\Documents\Classes2018\NXC_Code\Main.nxc"
0	105	111		acquire __TextOutMutex
0	104	112	#line 104 "C:\Users\Lara\Documents\Classes2018\NXC_Code\Main.nxc"
0	105	112		mov __TextOutArgs.Location.X, __signed_stack_001main
0	104	114	#line 104 "C:\Users\Lara\Documents\Classes2018\NXC_Code\Main.nxc"
0	105	114		mov __TextOutArgs.Location.Y, __signed_stack_002main
0	104	116	#line 104 "C:\Users\Lara\Documents\Classes2018\NXC_Code\Main.nxc"
0	105	116		set __TextOutArgs.Options, 0
0	104	119	#line 104 "C:\Users\Lara\Documents\Classes2018\NXC_Code\Main.nxc"
0	105	119		mov __TextOutArgs.Text, __strbufmain
0	104	121	#line 104 "C:\Users\Lara\Documents\Classes2018\NXC_Code\Main.nxc"
0	105	121		syscall 13, __TextOutArgs
0	104	124	#line 104 "C:\Users\Lara\Documents\Classes2018\NXC_Code\Main.nxc"
0	105	124		mov __D0main, __TextOutArgs.Result
0	104	126	#line 104 "C:\Users\Lara\Documents\Classes2018\NXC_Code\Main.nxc"
0	105	126		release __TextOutMutex
0	104	127	#line 104 "C:\Users\Lara\Documents\Classes2018\NXC_Code\Main.nxc"
0	104	127	#line 104 "C:\Users\Lara\Documents\Classes2018\NXC_Code\Main.nxc"
0	105	127		mov __D0main, __main_7qG2_state_7qG2_000
0	108	129		brcmp 4, __ASM_Label_582, __constVal1, __D0main
0	109	133		brcmp 4, __ASM_Label_613, __constVal2, __D0main
0	110	137		brcmp 4, __ASM_Label_634, __constVal3, __D0main
0	111	141		jmp __ASM_Label_639
0	106	143	#line 106 "C:\Users\Lara\Documents\Classes2018\NXC_Code\Main.nxc"
0	106	143	#line 106 "C:\Users\Lara\Documents\Classes2018\NXC_Code\Main.nxc"
0	107	143		set __signed_stack_001main, 0
0	106	146	#line 106 "C:\Users\Lara\Documents\Classes2018\NXC_Code\Main.nxc"
0	106	146	#line 106 "C:\Users\Lara\Documents\Classes2018\NXC_Code\Main.nxc"
0	107	146		set __signed_stack_002main, 0
0	106	149	#line 106 "C:\Users\Lara\Documents\Classes2018\NXC_Code\Main.nxc"
0	106	149	#line 106 "C:\Users\Lara\Documents\Classes2018\NXC_Code\Main.nxc"
0	107	149		strcat __strbufmain, __constStr0014
0	107	153	#line 107 "C:\Users\Lara\Documents\Classes2018\NXC_Code\Main.nxc"
0	108	153		acquire __TextOutMutex
0	107	154	#line 107 "C:\Users\Lara\Documents\Classes2018\NXC_Code\Main.nxc"
0	108	154		mov __TextOutArgs.Location.X, __signed_stack_001main
0	107	156	#line 107 "C:\Users\Lara\Documents\Classes2018\NXC_Code\Main.nxc"
0	108	156		mov __TextOutArgs.Location.Y, __signed_stack_002main
0	107	158	#line 107 "C:\Users\Lara\Documents\Classes2018\NXC_Code\Main.nxc"
0	108	158		set __TextOutArgs.Options, 0
0	107	161	#line 107 "C:\Users\Lara\Documents\Classes2018\NXC_Code\Main.nxc"
0	108	161		mov __TextOutArgs.Text, __strbufmain
0	107	163	#line 107 "C:\Users\Lara\Documents\Classes2018\NXC_Code\Main.nxc"
0	108	163		syscall 13, __TextOutArgs
0	107	166	#line 107 "C:\Users\Lara\Documents\Classes2018\NXC_Code\Main.nxc"
0	108	166		mov __D0main, __TextOutArgs.Result
0	107	168	#line 107 "C:\Users\Lara\Documents\Classes2018\NXC_Code\Main.nxc"
0	108	168		release __TextOutMutex
0	107	169	#line 107 "C:\Users\Lara\Documents\Classes2018\NXC_Code\Main.nxc"
0	108	169	#line 108 "C:\Users\Lara\Documents\Classes2018\NXC_Code\Main.nxc"
0	109	169		subcall lineDetect, __lineDetect_return
0	108	171	#line 108 "C:\Users\Lara\Documents\Classes2018\NXC_Code\Main.nxc"
0	109	171		mov __main_7qG2_temp1_7qG2_002, __DU0lineDetect
0	108	173	#line 108 "C:\Users\Lara\Documents\Classes2018\NXC_Code\Main.nxc"
0	109	173	#line 109 "C:\Users\Lara\Documents\Classes2018\NXC_Code\Main.nxc"
0	110	173		subcall cupDetect, __cupDetect_return
0	109	175	#line 109 "C:\Users\Lara\Documents\Classes2018\NXC_Code\Main.nxc"
0	110	175		mov __main_7qG2_temp2_7qG2_002, __DU0cupDetect
0	109	177	#line 109 "C:\Users\Lara\Documents\Classes2018\NXC_Code\Main.nxc"
0	109	177	#line 109 "C:\Users\Lara\Documents\Classes2018\NXC_Code\Main.nxc"
0	110	177		mov __DU0main, __main_7qG2_temp1_7qG2_002
0	109	179	#line 109 "C:\Users\Lara\Documents\Classes2018\NXC_Code\Main.nxc"
0	110	179		not __DU0main, __DU0main
0	109	182	#line 109 "C:\Users\Lara\Documents\Classes2018\NXC_Code\Main.nxc"
0	110	182		tst 5, __D0main, __DU0main
0	109	185	#line 109 "C:\Users\Lara\Documents\Classes2018\NXC_Code\Main.nxc"
0	110	185		brtst 4, __ASM_Label_592, __D0main
0	109	188	#line 109 "C:\Users\Lara\Documents\Classes2018\NXC_Code\Main.nxc"
0	110	188		mov __DU0main, __main_7qG2_temp2_7qG2_002
0	109	190	#line 109 "C:\Users\Lara\Documents\Classes2018\NXC_Code\Main.nxc"
0	110	190		not __DU0main, __DU0main
0	109	193	#line 109 "C:\Users\Lara\Documents\Classes2018\NXC_Code\Main.nxc"
0	110	193		tst 5, __D0main, __DU0main
0	110	196	#line 110 "C:\Users\Lara\Documents\Classes2018\NXC_Code\Main.nxc"
0	111	196		brtst 4, __ASM_Label_593, __D0main
0	110	199	#line 110 "C:\Users\Lara\Documents\Classes2018\NXC_Code\Main.nxc"
0	111	199		set __moveForward_7qG2_speed_7qG2_000, 25
0	110	202	#line 110 "C:\Users\Lara\Documents\Classes2018\NXC_Code\Main.nxc"
0	111	202	#line 111 "C:\Users\Lara\Documents\Classes2018\NXC_Code\Main.nxc"
0	112	202		subcall moveForward, __moveForward_return
0	111	204	#line 111 "C:\Users\Lara\Documents\Classes2018\NXC_Code\Main.nxc"
0	111	204	#line 111 "C:\Users\Lara\Documents\Classes2018\NXC_Code\Main.nxc"
0	112	204		jmp __ASM_Label_596
0	111	206	#line 111 "C:\Users\Lara\Documents\Classes2018\NXC_Code\Main.nxc"
0	112	206		mov __DU0main, __main_7qG2_temp1_7qG2_002
0	114	208	#line 114 "C:\Users\Lara\Documents\Classes2018\NXC_Code\Main.nxc"
0	115	208		tst 5, __D0main, __DU0main
0	114	211	#line 114 "C:\Users\Lara\Documents\Classes2018\NXC_Code\Main.nxc"
0	115	211		brtst 4, __ASM_Label_599, __D0main
0	115	214	#line 115 "C:\Users\Lara\Documents\Classes2018\NXC_Code\Main.nxc"
0	116	214		subcall stopMoving, __stopMoving_return
0	115	216	#line 115 "C:\Users\Lara\Documents\Classes2018\NXC_Code\Main.nxc"
0	115	216	#line 115 "C:\Users\Lara\Documents\Classes2018\NXC_Code\Main.nxc"
0	116	216		jmp __ASM_Label_600
0	115	218	#line 115 "C:\Users\Lara\Documents\Classes2018\NXC_Code\Main.nxc"
0	116	218		mov __DU0main, __main_7qG2_temp2_7qG2_002
0	116	220	#line 116 "C:\Users\Lara\Documents\Classes2018\NXC_Code\Main.nxc"
0	117	220		tst 5, __D0main, __DU0main
0	116	223	#line 116 "C:\Users\Lara\Documents\Classes2018\NXC_Code\Main.nxc"
0	117	223		brtst 4, __ASM_Label_603, __D0main
0	117	226	#line 117 "C:\Users\Lara\Documents\Classes2018\NXC_Code\Main.nxc"
0	118	226		subcall openClaws, __openClaws_return
0	117	228	#line 117 "C:\Users\Lara\Documents\Classes2018\NXC_Code\Main.nxc"
0	117	228	#line 117 "C:\Users\Lara\Documents\Classes2018\NXC_Code\Main.nxc"
0	118	228		set __moveForward_7qG2_speed_7qG2_000, 30
0	117	231	#line 117 "C:\Users\Lara\Documents\Classes2018\NXC_Code\Main.nxc"
0	118	231	#line 118 "C:\Users\Lara\Documents\Classes2018\NXC_Code\Main.nxc"
0	119	231		subcall moveForward, __moveForward_return
0	118	233	#line 118 "C:\Users\Lara\Documents\Classes2018\NXC_Code\Main.nxc"
0	118	233	#line 118 "C:\Users\Lara\Documents\Classes2018\NXC_Code\Main.nxc"
0	119	233		set __Wait_7qG2_ms_7qG2_000_inline_main, 1500
0	118	236	#line 118 "C:\Users\Lara\Documents\Classes2018\NXC_Code\Main.nxc"
0	8551	236	#line 8551 "NXCDefs.h"
0	8552	236		wait2 NA, __Wait_7qG2_ms_7qG2_000_inline_main
0	8551	239	#line 8551 "NXCDefs.h"
0	119	239	#line 119 "C:\Users\Lara\Documents\Classes2018\NXC_Code\Main.nxc"
0	120	239	#line 120 "C:\Users\Lara\Documents\Classes2018\NXC_Code\Main.nxc"
0	121	239		subcall closeClaws, __closeClaws_return
0	120	241	#line 120 "C:\Users\Lara\Documents\Classes2018\NXC_Code\Main.nxc"
0	121	241	#line 121 "C:\Users\Lara\Documents\Classes2018\NXC_Code\Main.nxc"
0	122	241		mov __main_7qG2_state_7qG2_000, __main_7qG2_grabState_7qG2_000
0	121	243	#line 121 "C:\Users\Lara\Documents\Classes2018\NXC_Code\Main.nxc"
0	121	243	#line 121 "C:\Users\Lara\Documents\Classes2018\NXC_Code\Main.nxc"
0	122	243	#line 122 "C:\Users\Lara\Documents\Classes2018\NXC_Code\Main.nxc"
0	123	243		jmp __ASM_Label_610
0	123	245	#line 123 "C:\Users\Lara\Documents\Classes2018\NXC_Code\Main.nxc"
0	124	245		mov __main_7qG2_state_7qG2_000, __constValNeg1
0	123	247	#line 123 "C:\Users\Lara\Documents\Classes2018\NXC_Code\Main.nxc"
0	123	247	#line 123 "C:\Users\Lara\Documents\Classes2018\NXC_Code\Main.nxc"
0	124	247	#line 124 "C:\Users\Lara\Documents\Classes2018\NXC_Code\Main.nxc"
0	124	247	#line 124 "C:\Users\Lara\Documents\Classes2018\NXC_Code\Main.nxc"
0	124	247	#line 124 "C:\Users\Lara\Documents\Classes2018\NXC_Code\Main.nxc"
0	126	247	#line 126 "C:\Users\Lara\Documents\Classes2018\NXC_Code\Main.nxc"
0	127	247		jmp __ASM_Label_581
0	126	249	#line 126 "C:\Users\Lara\Documents\Classes2018\NXC_Code\Main.nxc"
0	127	249	#line 127 "C:\Users\Lara\Documents\Classes2018\NXC_Code\Main.nxc"
0	127	249	#line 127 "C:\Users\Lara\Documents\Classes2018\NXC_Code\Main.nxc"
0	128	249		set __signed_stack_001main, 0
0	127	252	#line 127 "C:\Users\Lara\Documents\Classes2018\NXC_Code\Main.nxc"
0	127	252	#line 127 "C:\Users\Lara\Documents\Classes2018\NXC_Code\Main.nxc"
0	128	252		set __signed_stack_002main, 0
0	127	255	#line 127 "C:\Users\Lara\Documents\Classes2018\NXC_Code\Main.nxc"
0	127	255	#line 127 "C:\Users\Lara\Documents\Classes2018\NXC_Code\Main.nxc"
0	128	255		strcat __strbufmain, __constStr0015
0	134	259	#line 134 "C:\Users\Lara\Documents\Classes2018\NXC_Code\Main.nxc"
0	135	259		acquire __TextOutMutex
0	134	260	#line 134 "C:\Users\Lara\Documents\Classes2018\NXC_Code\Main.nxc"
0	135	260		mov __TextOutArgs.Location.X, __signed_stack_001main
0	134	262	#line 134 "C:\Users\Lara\Documents\Classes2018\NXC_Code\Main.nxc"
0	135	262		mov __TextOutArgs.Location.Y, __signed_stack_002main
0	134	264	#line 134 "C:\Users\Lara\Documents\Classes2018\NXC_Code\Main.nxc"
0	135	264		set __TextOutArgs.Options, 0
0	134	267	#line 134 "C:\Users\Lara\Documents\Classes2018\NXC_Code\Main.nxc"
0	135	267		mov __TextOutArgs.Text, __strbufmain
0	134	269	#line 134 "C:\Users\Lara\Documents\Classes2018\NXC_Code\Main.nxc"
0	135	269		syscall 13, __TextOutArgs
0	134	272	#line 134 "C:\Users\Lara\Documents\Classes2018\NXC_Code\Main.nxc"
0	135	272		mov __D0main, __TextOutArgs.Result
0	134	274	#line 134 "C:\Users\Lara\Documents\Classes2018\NXC_Code\Main.nxc"
0	135	274		release __TextOutMutex
0	134	275	#line 134 "C:\Users\Lara\Documents\Classes2018\NXC_Code\Main.nxc"
0	135	275	#line 135 "C:\Users\Lara\Documents\Classes2018\NXC_Code\Main.nxc"
0	136	275		subcall lineDetect, __lineDetect_return
0	135	277	#line 135 "C:\Users\Lara\Documents\Classes2018\NXC_Code\Main.nxc"
0	136	277		mov __main_7qG2_lineDetected_7qG2_002, __DU0lineDetect
0	135	279	#line 135 "C:\Users\Lara\Documents\Classes2018\NXC_Code\Main.nxc"
0	135	279	#line 135 "C:\Users\Lara\Documents\Classes2018\NXC_Code\Main.nxc"
0	136	279		mov __DU0main, __main_7qG2_lineDetected_7qG2_002
0	137	281	#line 137 "C:\Users\Lara\Documents\Classes2018\NXC_Code\Main.nxc"
0	138	281		tst 5, __D0main, __DU0main
0	137	284	#line 137 "C:\Users\Lara\Documents\Classes2018\NXC_Code\Main.nxc"
0	138	284		brtst 4, __ASM_Label_622, __D0main
0	138	287	#line 138 "C:\Users\Lara\Documents\Classes2018\NXC_Code\Main.nxc"
0	139	287		subcall stopMoving, __stopMoving_return
0	138	289	#line 138 "C:\Users\Lara\Documents\Classes2018\NXC_Code\Main.nxc"
0	138	289	#line 138 "C:\Users\Lara\Documents\Classes2018\NXC_Code\Main.nxc"
0	139	289		set __Wait_7qG2_ms_7qG2_000_inline_main, 1000
0	138	292	#line 138 "C:\Users\Lara\Documents\Classes2018\NXC_Code\Main.nxc"
0	8551	292	#line 8551 "NXCDefs.h"
0	8552	292		wait2 NA, __Wait_7qG2_ms_7qG2_000_inline_main
0	8551	295	#line 8551 "NXCDefs.h"
0	139	295	#line 139 "C:\Users\Lara\Documents\Classes2018\NXC_Code\Main.nxc"
0	140	295	#line 140 "C:\Users\Lara\Documents\Classes2018\NXC_Code\Main.nxc"
0	141	295		subcall openClaws, __openClaws_return
0	140	297	#line 140 "C:\Users\Lara\Documents\Classes2018\NXC_Code\Main.nxc"
0	140	297	#line 140 "C:\Users\Lara\Documents\Classes2018\NXC_Code\Main.nxc"
0	141	297		set __backUp_7qG2_speed_7qG2_000, 25
0	140	300	#line 140 "C:\Users\Lara\Documents\Classes2018\NXC_Code\Main.nxc"
0	141	300	#line 141 "C:\Users\Lara\Documents\Classes2018\NXC_Code\Main.nxc"
0	142	300		subcall backUp, __backUp_return
0	141	302	#line 141 "C:\Users\Lara\Documents\Classes2018\NXC_Code\Main.nxc"
0	141	302	#line 141 "C:\Users\Lara\Documents\Classes2018\NXC_Code\Main.nxc"
0	142	302		set __Wait_7qG2_ms_7qG2_000_inline_main, 1000
0	141	305	#line 141 "C:\Users\Lara\Documents\Classes2018\NXC_Code\Main.nxc"
0	8551	305	#line 8551 "NXCDefs.h"
0	8552	305		wait2 NA, __Wait_7qG2_ms_7qG2_000_inline_main
0	8551	308	#line 8551 "NXCDefs.h"
0	142	308	#line 142 "C:\Users\Lara\Documents\Classes2018\NXC_Code\Main.nxc"
0	143	308	#line 143 "C:\Users\Lara\Documents\Classes2018\NXC_Code\Main.nxc"
0	144	308		subcall closeClaws, __closeClaws_return
0	143	310	#line 143 "C:\Users\Lara\Documents\Classes2018\NXC_Code\Main.nxc"
0	146	310	#line 146 "C:\Users\Lara\Documents\Classes2018\NXC_Code\Main.nxc"
0	147	310		set __main_7qG2_stateMachineRunning_7qG2_000, 0
0	146	313	#line 146 "C:\Users\Lara\Documents\Classes2018\NXC_Code\Main.nxc"
0	146	313	#line 146 "C:\Users\Lara\Documents\Classes2018\NXC_Code\Main.nxc"
0	147	313	#line 147 "C:\Users\Lara\Documents\Classes2018\NXC_Code\Main.nxc"
0	148	313		jmp __ASM_Label_631
0	147	315	#line 147 "C:\Users\Lara\Documents\Classes2018\NXC_Code\Main.nxc"
0	148	315		set __moveForward_7qG2_speed_7qG2_000, 25
0	147	318	#line 147 "C:\Users\Lara\Documents\Classes2018\NXC_Code\Main.nxc"
0	148	318	#line 148 "C:\Users\Lara\Documents\Classes2018\NXC_Code\Main.nxc"
0	149	318		subcall moveForward, __moveForward_return
0	148	320	#line 148 "C:\Users\Lara\Documents\Classes2018\NXC_Code\Main.nxc"
0	157	320	#line 157 "C:\Users\Lara\Documents\Classes2018\NXC_Code\Main.nxc"
0	159	320	#line 159 "C:\Users\Lara\Documents\Classes2018\NXC_Code\Main.nxc"
0	160	320		jmp __ASM_Label_581
0	159	322	#line 159 "C:\Users\Lara\Documents\Classes2018\NXC_Code\Main.nxc"
0	160	322	#line 160 "C:\Users\Lara\Documents\Classes2018\NXC_Code\Main.nxc"
0	160	322	#line 160 "C:\Users\Lara\Documents\Classes2018\NXC_Code\Main.nxc"
0	161	322		set __signed_stack_001main, 0
0	160	325	#line 160 "C:\Users\Lara\Documents\Classes2018\NXC_Code\Main.nxc"
0	160	325	#line 160 "C:\Users\Lara\Documents\Classes2018\NXC_Code\Main.nxc"
0	161	325		set __signed_stack_002main, 0
0	160	328	#line 160 "C:\Users\Lara\Documents\Classes2018\NXC_Code\Main.nxc"
0	160	328	#line 160 "C:\Users\Lara\Documents\Classes2018\NXC_Code\Main.nxc"
0	161	328		strcat __strbufmain, __constStr0016
0	169	332	#line 169 "C:\Users\Lara\Documents\Classes2018\NXC_Code\Main.nxc"
0	170	332		acquire __TextOutMutex
0	169	333	#line 169 "C:\Users\Lara\Documents\Classes2018\NXC_Code\Main.nxc"
0	170	333		mov __TextOutArgs.Location.X, __signed_stack_001main
0	169	335	#line 169 "C:\Users\Lara\Documents\Classes2018\NXC_Code\Main.nxc"
0	170	335		mov __TextOutArgs.Location.Y, __signed_stack_002main
0	169	337	#line 169 "C:\Users\Lara\Documents\Classes2018\NXC_Code\Main.nxc"
0	170	337		set __TextOutArgs.Options, 0
0	169	340	#line 169 "C:\Users\Lara\Documents\Classes2018\NXC_Code\Main.nxc"
0	170	340		mov __TextOutArgs.Text, __strbufmain
0	169	342	#line 169 "C:\Users\Lara\Documents\Classes2018\NXC_Code\Main.nxc"
0	170	342		syscall 13, __TextOutArgs
0	169	345	#line 169 "C:\Users\Lara\Documents\Classes2018\NXC_Code\Main.nxc"
0	170	345		mov __D0main, __TextOutArgs.Result
0	169	347	#line 169 "C:\Users\Lara\Documents\Classes2018\NXC_Code\Main.nxc"
0	170	347		release __TextOutMutex
0	169	348	#line 169 "C:\Users\Lara\Documents\Classes2018\NXC_Code\Main.nxc"
0	171	348	#line 171 "C:\Users\Lara\Documents\Classes2018\NXC_Code\Main.nxc"
0	172	348		jmp __ASM_Label_581
0	171	350	#line 171 "C:\Users\Lara\Documents\Classes2018\NXC_Code\Main.nxc"
0	172	350	#line 172 "C:\Users\Lara\Documents\Classes2018\NXC_Code\Main.nxc"
0	173	350	#line 173 "C:\Users\Lara\Documents\Classes2018\NXC_Code\Main.nxc"
0	174	350		set __main_7qG2_stateMachineRunning_7qG2_000, 0
0	173	353	#line 173 "C:\Users\Lara\Documents\Classes2018\NXC_Code\Main.nxc"
0	173	353	#line 173 "C:\Users\Lara\Documents\Classes2018\NXC_Code\Main.nxc"
0	175	353	#line 175 "C:\Users\Lara\Documents\Classes2018\NXC_Code\Main.nxc"
0	191	353	#line 191 "C:\Users\Lara\Documents\Classes2018\NXC_Code\Main.nxc"
0	192	353		jmp __ASM_Label_571
0	191	355	#line 191 "C:\Users\Lara\Documents\Classes2018\NXC_Code\Main.nxc"
0	192	355		exit -1, -1
1	5067	0		brtst 4, __rotate_Done0, __rotate_angle0
1	5068	3		set ____RotateMotor0_sign_tmp, 0
1	5068	6		brtst EQ, __sign_0, __rotate_angle0
1	5068	9		set ____RotateMotor0_sign_tmp, -1
1	5068	12		brtst LT, __sign_0, __rotate_angle0
1	5068	15		set ____RotateMotor0_sign_tmp, 1
1	5068	18	__sign_0:	mov __rotate_thePower0, ____RotateMotor0_sign_tmp
1	5069	20		abs __rotate_theAngle0, __rotate_angle0
1	5070	23		mul __rotate_thePower0, __rotate_thePower0, __rotate_power0
1	5072	27		set __rotate_theUF0, 23
1	5073	30		brtst 4, __rotate_NoSync0, __rotate_sync0
1	5074	33		set __rotate_theOM0, 7
1	5075	36		set __rotate_theRM0, 2
1	5076	39		mov __rotate_theTurnPct0, __rotate_turnpct0
1	5077	41		brtst 4, __rotate_Start0, __rotate_theTurnPct0
1	5078	44		add __rotate_theUF0, __rotate_theUF0, __constVal32
1	5079	48		jmp __rotate_Start0
1	5081	50		set __rotate_theOM0, 3
1	5082	53		set __rotate_theRM0, 0
1	5083	56		set __rotate_theTurnPct0, 0
1	5085	59		set __rotate_theRS0, 32
1	5086	62		setout __rotate_ports0, 1, __rotate_theOM0, 8, __rotate_theRM0, 5, __rotate_theAngle0, 6, __rotate_theRS0, 10, __rotate_theRVP0, 11, __rotate_theRVI0, 12, __rotate_theRVD0, 2, __rotate_thePower0, 7, __rotate_turnpct0, 0, __rotate_theUF0
1	5089	85		index __rotate_firstPort0, __rotate_ports0, 65535
1	5091	89		getout __rotate_power0, __rotate_firstPort0, 2
1	5092	93		brtst 4, __rotate_doneRunning0, __rotate_power0
1	5093	96		getout __rotate_rs0, __rotate_firstPort0, 6
1	5094	100		brcmp 4, __rotate_Running0, __rotate_rs0, __constVal32
1	5096	104		brtst 4, __rotate_Reset0, __rotate_stop0
1	5098	107		set __rotate_theOM0, 7
1	5099	110		set __rotate_theUF0, 7
1	5100	113		setout __rotate_ports0, 1, __rotate_theOM0, 8, __constVal1, 6, __rotate_theRS0, 2, __constVal0, 5, __constVal0, 0, __rotate_theUF0
1	5102	128		getout __rotate_RotCount0, __rotate_firstPort0, 14
1	5104	132		mov __rotate_OldRotCount0, __rotate_RotCount0
1	5105	134		wait2 NA, __constVal50
1	5107	137		getout __rotate_RotCount0, __rotate_firstPort0, 14
1	5108	141		brcmp 5, __rotate_Stabilize0, __rotate_OldRotCount0, __rotate_RotCount0
1	5109	145		set __rotate_theOM0, 4
1	5110	148		setout __rotate_ports0, 8, __rotate_theRM0, 6, __constVal0, 1, __rotate_theOM0, 0, __constVal1
1	5113	159		brtst 4, __rotate_Done0, __rotate_theTurnPct0
1	5114	162		setout __rotate_ports0, 0, __constVal32
1	5116	167		subret ____RotateMotor0_return
2	5476	0		setin __constVal1, __ResetSensorPort, 5
2	5478	4		getin __ResetSensorTmp, __ResetSensorPort, 5
2	5479	8		brtst 5, __SensorStillInvalid, __ResetSensorTmp
2	5480	11		subret ____ResetSensorSubroutine_return
3	6319	0	#pragma macro 25
3	6319	0		acquire __CLSWMutex1
3	6319	1		or __CLSWArgs1.Port, __constVal1, __LSWriteOptions1
3	6319	5		mov __CLSWArgs1.ReturnLen, __RLSBytesCount1
3	6319	7		mov __CLSWArgs1.Buffer, __RLSReadBuf1
3	6319	9		syscall 21, __CLSWArgs1
3	6319	12		mov __RLSBResult1, __CLSWArgs1.Result
3	6319	14		release __CLSWMutex1
3	6319	15	#line 6319 "NXTDefs.h"
3	6320	15		brtst 5, __RLSBError1, __RLSBResult1
3	6321	18		set __RLSBIterations1, 60
3	6323	21	#pragma macro 23
3	6323	21		acquire __CLSCSMutex1
3	6323	22		set __CLSCSArgs1.Port, 1
3	6323	25		syscall 23, __CLSCSArgs1
3	6323	28		mov __RLSBytesCount1, __CLSCSArgs1.BytesReady
3	6323	30		mov __RLSBResult1, __CLSCSArgs1.Result
3	6323	32		release __CLSCSMutex1
3	6323	33	#line 6323 "NXTDefs.h"
3	6324	33		sub __RLSBIterations1, __RLSBIterations1, __constVal1
3	6325	37		brtst 2, __RLSBError1, __RLSBIterations1
3	6326	40		brtst 0, __RLSBError1, __RLSBResult1
3	6327	43		brtst 4, __RLSBReadyToRead1, __RLSBResult1
3	6329	46		wait2 NA, __constVal1
3	6330	49		jmp __RLSBDoCheckStatus1
3	6332	51		brtst 4, __RLSBReturn1, __RLSBytesCount1
3	6333	54		arrinit __RLSReadBuf1, __constVal0, __RLSBytesCount1
3	6335	58	#pragma macro 25
3	6335	58		acquire __CLSRMutex1
3	6335	59		set __CLSRArgs1.Port, 1
3	6335	62		mov __CLSRArgs1.BufferLen, __RLSBytesCount1
3	6335	64		syscall 22, __CLSRArgs1
3	6335	67		mov __RLSReadBuf1, __CLSRArgs1.Buffer
3	6335	69		mov __RLSBResult1, __CLSRArgs1.Result
3	6335	71		release __CLSRMutex1
3	6335	72	#line 6335 "NXTDefs.h"
3	6336	72		brtst 5, __RLSBError1, __RLSBResult1
3	6337	75		mov __RLSLastGoodRead1, __RLSReadBuf1
3	6338	77		jmp __RLSBDone1
3	6340	79		mov __RLSReadBuf1, __RLSLastGoodRead1
3	6342	81		arrsize __RLSBytesCount1, __RLSReadBuf1
3	6344	84		subret ____ReadLSBytes1_return
4	7	0	#line 7 "C:\Users\Lara\Documents\Classes2018\NXC_Code\Main.nxc"
4	8	0		set __SetSensorUltrasonic_7qG2_port_7qG2_000_inline_initializeSensors, 1
4	7	3	#line 7 "C:\Users\Lara\Documents\Classes2018\NXC_Code\Main.nxc"
4	4352	3	#line 4352 "NXCDefs.h"
4	4353	3		mov __SetSensorLowspeed_7qG2_port_7qG2_000_inline_SetSensorUltrasonic_inline_initializeSensors, __SetSensorUltrasonic_7qG2_port_7qG2_000_inline_initializeSensors
4	4352	5	#line 4352 "NXCDefs.h"
4	4352	5	#line 4352 "NXCDefs.h"
4	4353	5		mov __SetSensorLowspeed_7qG2_bIsPowered_7qG2_000_inline_SetSensorUltrasonic_inline_initializeSensors, __constVal1
4	4342	7	#line 4342 "NXCDefs.h"
4	4343	7		mov __SetSensorType_7qG2_port_7qG2_000_inline_SetSensorLowspeed_inline_SetSensorUltrasonic_inline_initializeSensors, __SetSensorLowspeed_7qG2_port_7qG2_000_inline_SetSensorUltrasonic_inline_initializeSensors
4	4342	9	#line 4342 "NXCDefs.h"
4	4342	9	#line 4342 "NXCDefs.h"
4	4343	9		mov __DU0SetSensorLowspeed_inline_SetSensorUltrasonic, __SetSensorLowspeed_7qG2_bIsPowered_7qG2_000_inline_SetSensorUltrasonic_inline_initializeSensors
4	4342	11	#line 4342 "NXCDefs.h"
4	4343	11		tst 5, __D0SetSensorLowspeed_inline_SetSensorUltrasonic, __DU0SetSensorLowspeed_inline_SetSensorUltrasonic
4	4342	14	#line 4342 "NXCDefs.h"
4	4343	14		brtst 4, __001__001__ASM_Label_36, __D0SetSensorLowspeed_inline_SetSensorUltrasonic
4	4342	17	#line 4342 "NXCDefs.h"
4	4343	17		set __DU0SetSensorLowspeed_inline_SetSensorUltrasonic, 11
4	4342	20	#line 4342 "NXCDefs.h"
4	4342	20	#line 4342 "NXCDefs.h"
4	4343	20		jmp __001__001__ASM_Label_37
4	4342	22	#line 4342 "NXCDefs.h"
4	4343	22		set __DU0SetSensorLowspeed_inline_SetSensorUltrasonic, 10
4	4342	25	#line 4342 "NXCDefs.h"
4	4342	25	#line 4342 "NXCDefs.h"
4	4343	25		mov __SetSensorType_7qG2_type_7qG2_000_inline_SetSensorLowspeed_inline_SetSensorUltrasonic_inline_initializeSensors, __DU0SetSensorLowspeed_inline_SetSensorUltrasonic
4	4247	27	#line 4247 "NXCDefs.h"
4	4248	27		setin __SetSensorType_7qG2_type_7qG2_000_inline_SetSensorLowspeed_inline_SetSensorUltrasonic_inline_initializeSensors, __SetSensorType_7qG2_port_7qG2_000_inline_SetSensorLowspeed_inline_SetSensorUltrasonic_inline_initializeSensors, 0
4	4247	31	#line 4247 "NXCDefs.h"
4	4343	31	#line 4343 "NXCDefs.h"
4	4343	31	#line 4343 "NXCDefs.h"
4	4344	31		mov __SetSensorMode_7qG2_port_7qG2_000_inline_SetSensorLowspeed_inline_SetSensorUltrasonic_inline_initializeSensors, __SetSensorLowspeed_7qG2_port_7qG2_000_inline_SetSensorUltrasonic_inline_initializeSensors
4	4343	33	#line 4343 "NXCDefs.h"
4	4343	33	#line 4343 "NXCDefs.h"
4	4344	33		set __SetSensorMode_7qG2_mode_7qG2_000_inline_SetSensorLowspeed_inline_SetSensorUltrasonic_inline_initializeSensors, 0
4	4343	36	#line 4343 "NXCDefs.h"
4	4260	36	#line 4260 "NXCDefs.h"
4	4261	36		setin __SetSensorMode_7qG2_mode_7qG2_000_inline_SetSensorLowspeed_inline_SetSensorUltrasonic_inline_initializeSensors, __SetSensorMode_7qG2_port_7qG2_000_inline_SetSensorLowspeed_inline_SetSensorUltrasonic_inline_initializeSensors, 1
4	4260	40	#line 4260 "NXCDefs.h"
4	4344	40	#line 4344 "NXCDefs.h"
4	4344	40	#line 4344 "NXCDefs.h"
4	4345	40		mov __ResetSensor_7qG2_port_7qG2_000_inline_SetSensorLowspeed_inline_SetSensorUltrasonic_inline_initializeSensors, __SetSensorLowspeed_7qG2_port_7qG2_000_inline_SetSensorUltrasonic_inline_initializeSensors
4	4344	42	#line 4344 "NXCDefs.h"
4	4278	42	#line 4278 "NXCDefs.h"
4	4279	42	#pragma macro 4
4	4279	42		acquire __ResetSensorMutex
4	4279	43		mov __ResetSensorPort, __ResetSensor_7qG2_port_7qG2_000_inline_SetSensorLowspeed_inline_SetSensorUltrasonic_inline_initializeSensors
4	4279	45		subcall __ResetSensorSubroutine, ____ResetSensorSubroutine_return
4	4279	47		release __ResetSensorMutex
4	4502	48	#line 4502 "NXCDefs.h"
4	4278	48	#line 4278 "NXCDefs.h"
4	4345	48	#line 4345 "NXCDefs.h"
4	4352	48	#line 4352 "NXCDefs.h"
4	8	48	#line 8 "C:\Users\Lara\Documents\Classes2018\NXC_Code\Main.nxc"
4	8	48	#line 8 "C:\Users\Lara\Documents\Classes2018\NXC_Code\Main.nxc"
4	9	48		set __SetSensorLowspeed_7qG2_port_7qG2_000_inline_initializeSensors, 1
4	8	51	#line 8 "C:\Users\Lara\Documents\Classes2018\NXC_Code\Main.nxc"
4	9	51	#line 9 "C:\Users\Lara\Documents\Classes2018\NXC_Code\Main.nxc"
4	10	51		mov __SetSensorLowspeed_7qG2_bIsPowered_7qG2_000_inline_initializeSensors, __constVal1
4	4342	53	#line 4342 "NXCDefs.h"
4	4343	53		mov __SetSensorType_7qG2_port_7qG2_000_inline_SetSensorLowspeed_inline_initializeSensors, __SetSensorLowspeed_7qG2_port_7qG2_000_inline_initializeSensors
4	4342	55	#line 4342 "NXCDefs.h"
4	4342	55	#line 4342 "NXCDefs.h"
4	4343	55		mov __DU0SetSensorLowspeed_inline_initializeSensors, __SetSensorLowspeed_7qG2_bIsPowered_7qG2_000_inline_initializeSensors
4	4342	57	#line 4342 "NXCDefs.h"
4	4343	57		tst 5, __D0SetSensorLowspeed_inline_initializeSensors, __DU0SetSensorLowspeed_inline_initializeSensors
4	4342	60	#line 4342 "NXCDefs.h"
4	4343	60		brtst 4, __004__ASM_Label_36, __D0SetSensorLowspeed_inline_initializeSensors
4	4342	63	#line 4342 "NXCDefs.h"
4	4343	63		set __DU0SetSensorLowspeed_inline_initializeSensors, 11
4	4342	66	#line 4342 "NXCDefs.h"
4	4342	66	#line 4342 "NXCDefs.h"
4	4343	66		jmp __004__ASM_Label_37
4	4342	68	#line 4342 "NXCDefs.h"
4	4343	68		set __DU0SetSensorLowspeed_inline_initializeSensors, 10
4	4342	71	#line 4342 "NXCDefs.h"
4	4342	71	#line 4342 "NXCDefs.h"
4	4343	71		mov __SetSensorType_7qG2_type_7qG2_000_inline_SetSensorLowspeed_inline_initializeSensors, __DU0SetSensorLowspeed_inline_initializeSensors
4	4247	73	#line 4247 "NXCDefs.h"
4	4248	73		setin __SetSensorType_7qG2_type_7qG2_000_inline_SetSensorLowspeed_inline_initializeSensors, __SetSensorType_7qG2_port_7qG2_000_inline_SetSensorLowspeed_inline_initializeSensors, 0
4	4247	77	#line 4247 "NXCDefs.h"
4	4343	77	#line 4343 "NXCDefs.h"
4	4343	77	#line 4343 "NXCDefs.h"
4	4344	77		mov __SetSensorMode_7qG2_port_7qG2_000_inline_SetSensorLowspeed_inline_initializeSensors, __SetSensorLowspeed_7qG2_port_7qG2_000_inline_initializeSensors
4	4343	79	#line 4343 "NXCDefs.h"
4	4343	79	#line 4343 "NXCDefs.h"
4	4344	79		set __SetSensorMode_7qG2_mode_7qG2_000_inline_SetSensorLowspeed_inline_initializeSensors, 0
4	4343	82	#line 4343 "NXCDefs.h"
4	4260	82	#line 4260 "NXCDefs.h"
4	4261	82		setin __SetSensorMode_7qG2_mode_7qG2_000_inline_SetSensorLowspeed_inline_initializeSensors, __SetSensorMode_7qG2_port_7qG2_000_inline_SetSensorLowspeed_inline_initializeSensors, 1
4	4260	86	#line 4260 "NXCDefs.h"
4	4344	86	#line 4344 "NXCDefs.h"
4	4344	86	#line 4344 "NXCDefs.h"
4	4345	86		mov __ResetSensor_7qG2_port_7qG2_000_inline_SetSensorLowspeed_inline_initializeSensors, __SetSensorLowspeed_7qG2_port_7qG2_000_inline_initializeSensors
4	4344	88	#line 4344 "NXCDefs.h"
4	4278	88	#line 4278 "NXCDefs.h"
4	4279	88	#pragma macro 4
4	4279	88		acquire __ResetSensorMutex
4	4279	89		mov __ResetSensorPort, __ResetSensor_7qG2_port_7qG2_000_inline_SetSensorLowspeed_inline_initializeSensors
4	4279	91		subcall __ResetSensorSubroutine, ____ResetSensorSubroutine_return
4	4279	93		release __ResetSensorMutex
4	4594	94	#line 4594 "NXCDefs.h"
4	4278	94	#line 4278 "NXCDefs.h"
4	4345	94	#line 4345 "NXCDefs.h"
4	9	94	#line 9 "C:\Users\Lara\Documents\Classes2018\NXC_Code\Main.nxc"
4	9	94	#line 9 "C:\Users\Lara\Documents\Classes2018\NXC_Code\Main.nxc"
4	10	94		set __SetSensorLight_7qG2_port_7qG2_000_inline_initializeSensors, 2
4	9	97	#line 9 "C:\Users\Lara\Documents\Classes2018\NXC_Code\Main.nxc"
4	10	97	#line 10 "C:\Users\Lara\Documents\Classes2018\NXC_Code\Main.nxc"
4	11	97		mov __SetSensorLight_7qG2_bActive_7qG2_000_inline_initializeSensors, __constVal1
4	4313	99	#line 4313 "NXCDefs.h"
4	4314	99		mov __SetSensorType_7qG2_port_7qG2_000_inline_SetSensorLight_inline_initializeSensors, __SetSensorLight_7qG2_port_7qG2_000_inline_initializeSensors
4	4313	101	#line 4313 "NXCDefs.h"
4	4313	101	#line 4313 "NXCDefs.h"
4	4314	101		mov __DU0SetSensorLight_inline_initializeSensors, __SetSensorLight_7qG2_bActive_7qG2_000_inline_initializeSensors
4	4313	103	#line 4313 "NXCDefs.h"
4	4314	103		tst 5, __D0SetSensorLight_inline_initializeSensors, __DU0SetSensorLight_inline_initializeSensors
4	4313	106	#line 4313 "NXCDefs.h"
4	4314	106		brtst 4, __001__ASM_Label_4, __D0SetSensorLight_inline_initializeSensors
4	4313	109	#line 4313 "NXCDefs.h"
4	4314	109		set __DU0SetSensorLight_inline_initializeSensors, 5
4	4313	112	#line 4313 "NXCDefs.h"
4	4313	112	#line 4313 "NXCDefs.h"
4	4314	112		jmp __001__ASM_Label_5
4	4313	114	#line 4313 "NXCDefs.h"
4	4314	114		set __DU0SetSensorLight_inline_initializeSensors, 6
4	4313	117	#line 4313 "NXCDefs.h"
4	4313	117	#line 4313 "NXCDefs.h"
4	4314	117		mov __SetSensorType_7qG2_type_7qG2_000_inline_SetSensorLight_inline_initializeSensors, __DU0SetSensorLight_inline_initializeSensors
4	4247	119	#line 4247 "NXCDefs.h"
4	4248	119		setin __SetSensorType_7qG2_type_7qG2_000_inline_SetSensorLight_inline_initializeSensors, __SetSensorType_7qG2_port_7qG2_000_inline_SetSensorLight_inline_initializeSensors, 0
4	4247	123	#line 4247 "NXCDefs.h"
4	4314	123	#line 4314 "NXCDefs.h"
4	4314	123	#line 4314 "NXCDefs.h"
4	4315	123		mov __SetSensorMode_7qG2_port_7qG2_000_inline_SetSensorLight_inline_initializeSensors, __SetSensorLight_7qG2_port_7qG2_000_inline_initializeSensors
4	4314	125	#line 4314 "NXCDefs.h"
4	4314	125	#line 4314 "NXCDefs.h"
4	4315	125		set __SetSensorMode_7qG2_mode_7qG2_000_inline_SetSensorLight_inline_initializeSensors, 128
4	4314	128	#line 4314 "NXCDefs.h"
4	4260	128	#line 4260 "NXCDefs.h"
4	4261	128		setin __SetSensorMode_7qG2_mode_7qG2_000_inline_SetSensorLight_inline_initializeSensors, __SetSensorMode_7qG2_port_7qG2_000_inline_SetSensorLight_inline_initializeSensors, 1
4	4260	132	#line 4260 "NXCDefs.h"
4	4315	132	#line 4315 "NXCDefs.h"
4	4315	132	#line 4315 "NXCDefs.h"
4	4316	132		mov __ResetSensor_7qG2_port_7qG2_000_inline_SetSensorLight_inline_initializeSensors, __SetSensorLight_7qG2_port_7qG2_000_inline_initializeSensors
4	4315	134	#line 4315 "NXCDefs.h"
4	4278	134	#line 4278 "NXCDefs.h"
4	4279	134	#pragma macro 4
4	4279	134		acquire __ResetSensorMutex
4	4279	135		mov __ResetSensorPort, __ResetSensor_7qG2_port_7qG2_000_inline_SetSensorLight_inline_initializeSensors
4	4279	137		subcall __ResetSensorSubroutine, ____ResetSensorSubroutine_return
4	4279	139		release __ResetSensorMutex
4	4685	140	#line 4685 "NXCDefs.h"
4	4278	140	#line 4278 "NXCDefs.h"
4	4316	140	#line 4316 "NXCDefs.h"
4	10	140	#line 10 "C:\Users\Lara\Documents\Classes2018\NXC_Code\Main.nxc"
4	10	140	#line 10 "C:\Users\Lara\Documents\Classes2018\NXC_Code\Main.nxc"
4	11	140		set __SetSensorMode_7qG2_port_7qG2_000_inline_initializeSensors, 2
4	10	143	#line 10 "C:\Users\Lara\Documents\Classes2018\NXC_Code\Main.nxc"
4	10	143	#line 10 "C:\Users\Lara\Documents\Classes2018\NXC_Code\Main.nxc"
4	11	143		set __SetSensorMode_7qG2_mode_7qG2_000_inline_initializeSensors, 0
4	10	146	#line 10 "C:\Users\Lara\Documents\Classes2018\NXC_Code\Main.nxc"
4	4260	146	#line 4260 "NXCDefs.h"
4	4261	146		setin __SetSensorMode_7qG2_mode_7qG2_000_inline_initializeSensors, __SetSensorMode_7qG2_port_7qG2_000_inline_initializeSensors, 1
4	4260	150	#line 4260 "NXCDefs.h"
4	11	150	#line 11 "C:\Users\Lara\Documents\Classes2018\NXC_Code\Main.nxc"
4	13	150	#line 13 "C:\Users\Lara\Documents\Classes2018\NXC_Code\Main.nxc"
4	14	150		subret __initializeSensors_return
5	15	0	#line 15 "C:\Users\Lara\Documents\Classes2018\NXC_Code\Main.nxc"
5	16	0		mov __D0moveForward, __moveForward_7qG2_speed_7qG2_000
5	16	2	#line 16 "C:\Users\Lara\Documents\Classes2018\NXC_Code\Main.nxc"
5	17	2	#pragma macro 7
5	17	2		setout __constVal1, 2, __D0moveForward, 1, __constVal3, 8, __constVal0, 6, __constVal32, 7, __constVal0, 5, __constVal0, 10, __constVal96, 11, __constVal32, 12, __constVal32, 0, __constVal63
5	4723	25	#line 4723 "C:\Users\Lara\Documents\Classes2018\NXC_Code\Main.nxc"
5	16	25	#line 16 "C:\Users\Lara\Documents\Classes2018\NXC_Code\Main.nxc"
5	16	25	#line 16 "C:\Users\Lara\Documents\Classes2018\NXC_Code\Main.nxc"
5	17	25		mov __D0moveForward, __moveForward_7qG2_speed_7qG2_000
5	17	27	#line 17 "C:\Users\Lara\Documents\Classes2018\NXC_Code\Main.nxc"
5	18	27	#pragma macro 7
5	18	27		setout __constVal2, 2, __D0moveForward, 1, __constVal3, 8, __constVal0, 6, __constVal32, 7, __constVal0, 5, __constVal0, 10, __constVal96, 11, __constVal32, 12, __constVal32, 0, __constVal63
5	4730	50	#line 4730 "C:\Users\Lara\Documents\Classes2018\NXC_Code\Main.nxc"
5	17	50	#line 17 "C:\Users\Lara\Documents\Classes2018\NXC_Code\Main.nxc"
5	19	50	#line 19 "C:\Users\Lara\Documents\Classes2018\NXC_Code\Main.nxc"
5	20	50		subret __moveForward_return
6	21	0	#line 21 "C:\Users\Lara\Documents\Classes2018\NXC_Code\Main.nxc"
6	22	0		mov __D0backUp, __backUp_7qG2_speed_7qG2_000
6	22	2	#line 22 "C:\Users\Lara\Documents\Classes2018\NXC_Code\Main.nxc"
6	23	2	#pragma macro 10
6	23	2		neg __OnRev_Tmp, __D0backUp
6	23	5		setout __constVal1, 2, __OnRev_Tmp, 1, __constVal3, 8, __constVal0, 6, __constVal32, 7, __constVal0, 5, __constVal0, 10, __constVal96, 11, __constVal32, 12, __constVal32, 0, __constVal63
6	4746	28	#line 4746 "C:\Users\Lara\Documents\Classes2018\NXC_Code\Main.nxc"
6	22	28	#line 22 "C:\Users\Lara\Documents\Classes2018\NXC_Code\Main.nxc"
6	22	28	#line 22 "C:\Users\Lara\Documents\Classes2018\NXC_Code\Main.nxc"
6	23	28		mov __D0backUp, __backUp_7qG2_speed_7qG2_000
6	23	30	#line 23 "C:\Users\Lara\Documents\Classes2018\NXC_Code\Main.nxc"
6	24	30	#pragma macro 10
6	24	30		neg __OnRev_Tmp, __D0backUp
6	24	33		setout __constVal2, 2, __OnRev_Tmp, 1, __constVal3, 8, __constVal0, 6, __constVal32, 7, __constVal0, 5, __constVal0, 10, __constVal96, 11, __constVal32, 12, __constVal32, 0, __constVal63
6	4753	56	#line 4753 "C:\Users\Lara\Documents\Classes2018\NXC_Code\Main.nxc"
6	23	56	#line 23 "C:\Users\Lara\Documents\Classes2018\NXC_Code\Main.nxc"
6	25	56	#line 25 "C:\Users\Lara\Documents\Classes2018\NXC_Code\Main.nxc"
6	26	56		subret __backUp_return
7	27	0	#line 27 "C:\Users\Lara\Documents\Classes2018\NXC_Code\Main.nxc"
7	28	0		set __D0stopMoving, 0
7	28	3	#line 28 "C:\Users\Lara\Documents\Classes2018\NXC_Code\Main.nxc"
7	29	3	#pragma macro 7
7	29	3		setout __constVal1, 2, __D0stopMoving, 1, __constVal3, 8, __constVal0, 6, __constVal32, 7, __constVal0, 5, __constVal0, 10, __constVal96, 11, __constVal32, 12, __constVal32, 0, __constVal63
7	4763	26	#line 4763 "C:\Users\Lara\Documents\Classes2018\NXC_Code\Main.nxc"
7	28	26	#line 28 "C:\Users\Lara\Documents\Classes2018\NXC_Code\Main.nxc"
7	28	26	#line 28 "C:\Users\Lara\Documents\Classes2018\NXC_Code\Main.nxc"
7	29	26		set __D0stopMoving, 0
7	29	29	#line 29 "C:\Users\Lara\Documents\Classes2018\NXC_Code\Main.nxc"
7	30	29	#pragma macro 7
7	30	29		setout __constVal2, 2, __D0stopMoving, 1, __constVal3, 8, __constVal0, 6, __constVal32, 7, __constVal0, 5, __constVal0, 10, __constVal96, 11, __constVal32, 12, __constVal32, 0, __constVal63
7	4768	52	#line 4768 "C:\Users\Lara\Documents\Classes2018\NXC_Code\Main.nxc"
7	29	52	#line 29 "C:\Users\Lara\Documents\Classes2018\NXC_Code\Main.nxc"
7	31	52	#line 31 "C:\Users\Lara\Documents\Classes2018\NXC_Code\Main.nxc"
7	32	52		subret __stopMoving_return
8	45	0	#line 45 "C:\Users\Lara\Documents\Classes2018\NXC_Code\Main.nxc"
8	46	0		set __signed_stack_001lineDetect, 0
8	45	3	#line 45 "C:\Users\Lara\Documents\Classes2018\NXC_Code\Main.nxc"
8	45	3	#line 45 "C:\Users\Lara\Documents\Classes2018\NXC_Code\Main.nxc"
8	46	3		set __signed_stack_002lineDetect, 30
8	45	6	#line 45 "C:\Users\Lara\Documents\Classes2018\NXC_Code\Main.nxc"
8	45	6	#line 45 "C:\Users\Lara\Documents\Classes2018\NXC_Code\Main.nxc"
8	46	6		getin __D0lineDetect, __constVal2, 4
8	46	10	#line 46 "C:\Users\Lara\Documents\Classes2018\NXC_Code\Main.nxc"
8	47	10		acquire __TextOutMutex
8	46	11	#line 46 "C:\Users\Lara\Documents\Classes2018\NXC_Code\Main.nxc"
8	47	11		mov __TextOutArgs.Location.X, __signed_stack_001lineDetect
8	46	13	#line 46 "C:\Users\Lara\Documents\Classes2018\NXC_Code\Main.nxc"
8	47	13		mov __TextOutArgs.Location.Y, __signed_stack_002lineDetect
8	46	15	#line 46 "C:\Users\Lara\Documents\Classes2018\NXC_Code\Main.nxc"
8	47	15		set __TextOutArgs.Options, 0
8	46	18	#line 46 "C:\Users\Lara\Documents\Classes2018\NXC_Code\Main.nxc"
8	47	18		numtostr __TextOutArgs.Text, __D0lineDetect
8	46	21	#line 46 "C:\Users\Lara\Documents\Classes2018\NXC_Code\Main.nxc"
8	47	21		syscall 13, __TextOutArgs
8	46	24	#line 46 "C:\Users\Lara\Documents\Classes2018\NXC_Code\Main.nxc"
8	47	24		mov __D0lineDetect, __TextOutArgs.Result
8	46	26	#line 46 "C:\Users\Lara\Documents\Classes2018\NXC_Code\Main.nxc"
8	47	26		release __TextOutMutex
8	46	27	#line 46 "C:\Users\Lara\Documents\Classes2018\NXC_Code\Main.nxc"
8	46	27	#line 46 "C:\Users\Lara\Documents\Classes2018\NXC_Code\Main.nxc"
8	46	27	#line 46 "C:\Users\Lara\Documents\Classes2018\NXC_Code\Main.nxc"
8	47	27		getin __signed_stack_001lineDetect, __constVal2, 4
8	46	31	#line 46 "C:\Users\Lara\Documents\Classes2018\NXC_Code\Main.nxc"
8	48	31	#line 48 "C:\Users\Lara\Documents\Classes2018\NXC_Code\Main.nxc"
8	49	31		set __D0lineDetect, 500
8	48	34	#line 48 "C:\Users\Lara\Documents\Classes2018\NXC_Code\Main.nxc"
8	49	34		cmp 0, __D0lineDetect, __signed_stack_001lineDetect, __D0lineDetect
8	48	38	#line 48 "C:\Users\Lara\Documents\Classes2018\NXC_Code\Main.nxc"
8	49	38		mov __DU0lineDetect, __D0lineDetect
8	48	40	#line 48 "C:\Users\Lara\Documents\Classes2018\NXC_Code\Main.nxc"
8	49	40		subret __lineDetect_return
8	48	42	#line 48 "C:\Users\Lara\Documents\Classes2018\NXC_Code\Main.nxc"
8	48	42	#line 48 "C:\Users\Lara\Documents\Classes2018\NXC_Code\Main.nxc"
8	50	42	#line 50 "C:\Users\Lara\Documents\Classes2018\NXC_Code\Main.nxc"
8	51	42		subret __lineDetect_return
9	53	0	#line 53 "C:\Users\Lara\Documents\Classes2018\NXC_Code\Main.nxc"
9	54	0	#pragma macro 26
9	54	0		acquire __RLSBmutex1
9	54	1		mov __RLSReadBuf1, __RLSBbufLSWrite1
9	54	3		set __RLSBytesCount1, 1
9	54	6		wait2 NA, __constVal15
9	54	9		subcall __ReadLSBytes1, ____ReadLSBytes1_return
9	54	11		index __D0cupDetect, __RLSReadBuf1, 65535
9	54	15		release __RLSBmutex1
9	4911	16	#line 4911 "C:\Users\Lara\Documents\Classes2018\NXC_Code\Main.nxc"
9	53	16	#line 53 "C:\Users\Lara\Documents\Classes2018\NXC_Code\Main.nxc"
9	54	16		mov __signed_stack_001cupDetect, __D0cupDetect
9	54	18	#line 54 "C:\Users\Lara\Documents\Classes2018\NXC_Code\Main.nxc"
9	55	18		set __D0cupDetect, 22
9	54	21	#line 54 "C:\Users\Lara\Documents\Classes2018\NXC_Code\Main.nxc"
9	55	21		cmp 0, __D0cupDetect, __signed_stack_001cupDetect, __D0cupDetect
9	54	25	#line 54 "C:\Users\Lara\Documents\Classes2018\NXC_Code\Main.nxc"
9	55	25		mov __DU0cupDetect, __D0cupDetect
9	54	27	#line 54 "C:\Users\Lara\Documents\Classes2018\NXC_Code\Main.nxc"
9	55	27		subret __cupDetect_return
9	54	29	#line 54 "C:\Users\Lara\Documents\Classes2018\NXC_Code\Main.nxc"
9	54	29	#line 54 "C:\Users\Lara\Documents\Classes2018\NXC_Code\Main.nxc"
9	56	29	#line 56 "C:\Users\Lara\Documents\Classes2018\NXC_Code\Main.nxc"
9	57	29		subret __cupDetect_return
10	72	0	#line 72 "C:\Users\Lara\Documents\Classes2018\NXC_Code\Main.nxc"
10	73	0		set __signed_stack_001openClaws, 75
10	72	3	#line 72 "C:\Users\Lara\Documents\Classes2018\NXC_Code\Main.nxc"
10	72	3	#line 72 "C:\Users\Lara\Documents\Classes2018\NXC_Code\Main.nxc"
10	73	3		set __D0openClaws, 60
10	73	6	#line 73 "C:\Users\Lara\Documents\Classes2018\NXC_Code\Main.nxc"
10	74	6	#pragma macro 33
10	74	6		acquire __rotateMutex0
10	74	7		arrbuild __rotate_ports0, __constVal0
10	74	11		mov __rotate_power0, __signed_stack_001openClaws
10	74	13		mov __rotate_angle0, __D0openClaws
10	74	15		mov __rotate_turnpct0, __constVal0
10	74	17		mov __rotate_sync0, __constVal0
10	74	19		mov __rotate_stop0, __constVal1
10	74	21		mov __rotate_theRVP0, __constVal32
10	74	23		mov __rotate_theRVI0, __constVal0
10	74	25		mov __rotate_theRVD0, __constVal96
10	74	27		subcall __RotateMotor0, ____RotateMotor0_return
10	74	29		release __rotateMutex0
10	4990	30	#line 4990 "C:\Users\Lara\Documents\Classes2018\NXC_Code\Main.nxc"
10	73	30	#line 73 "C:\Users\Lara\Documents\Classes2018\NXC_Code\Main.nxc"
10	75	30	#line 75 "C:\Users\Lara\Documents\Classes2018\NXC_Code\Main.nxc"
10	76	30		subret __openClaws_return
11	76	0	#line 76 "C:\Users\Lara\Documents\Classes2018\NXC_Code\Main.nxc"
11	77	0		set __signed_stack_001closeClaws, 75
11	76	3	#line 76 "C:\Users\Lara\Documents\Classes2018\NXC_Code\Main.nxc"
11	76	3	#line 76 "C:\Users\Lara\Documents\Classes2018\NXC_Code\Main.nxc"
11	77	3		mov __D0closeClaws, __constValNeg60
11	77	5	#line 77 "C:\Users\Lara\Documents\Classes2018\NXC_Code\Main.nxc"
11	78	5	#pragma macro 33
11	78	5		acquire __rotateMutex0
11	78	6		arrbuild __rotate_ports0, __constVal0
11	78	10		mov __rotate_power0, __signed_stack_001closeClaws
11	78	12		mov __rotate_angle0, __D0closeClaws
11	78	14		mov __rotate_turnpct0, __constVal0
11	78	16		mov __rotate_sync0, __constVal0
11	78	18		mov __rotate_stop0, __constVal1
11	78	20		mov __rotate_theRVP0, __constVal32
11	78	22		mov __rotate_theRVI0, __constVal0
11	78	24		mov __rotate_theRVD0, __constVal96
11	78	26		subcall __RotateMotor0, ____RotateMotor0_return
11	78	28		release __rotateMutex0
11	5006	29	#line 5006 "C:\Users\Lara\Documents\Classes2018\NXC_Code\Main.nxc"
11	77	29	#line 77 "C:\Users\Lara\Documents\Classes2018\NXC_Code\Main.nxc"
11	79	29	#line 79 "C:\Users\Lara\Documents\Classes2018\NXC_Code\Main.nxc"
11	80	29		subret __closeClaws_return
12	192	0	#line 192 "C:\Users\Lara\Documents\Classes2018\NXC_Code\Main.nxc"
12	193	0		subret ____initialize_global_data_return
#CLUMPS
Clump	Name	Offset	File
0	main	0	C:\Users\Lara\Documents\Classes2018\NXC_Code\Main.nxc
1	__RotateMotor0	358	NXTDefs.h
2	__ResetSensorSubroutine	527	NXTDefs.h
3	__ReadLSBytes1	540	NXTDefs.h
4	initializeSensors	626	C:\Users\Lara\Documents\Classes2018\NXC_Code\Main.nxc
5	moveForward	778	C:\Users\Lara\Documents\Classes2018\NXC_Code\Main.nxc
6	backUp	830	C:\Users\Lara\Documents\Classes2018\NXC_Code\Main.nxc
7	stopMoving	888	C:\Users\Lara\Documents\Classes2018\NXC_Code\Main.nxc
8	lineDetect	942	C:\Users\Lara\Documents\Classes2018\NXC_Code\Main.nxc
9	cupDetect	986	C:\Users\Lara\Documents\Classes2018\NXC_Code\Main.nxc
10	openClaws	1017	C:\Users\Lara\Documents\Classes2018\NXC_Code\Main.nxc
11	closeClaws	1049	C:\Users\Lara\Documents\Classes2018\NXC_Code\Main.nxc
12	__initialize_global_data	1080	C:\Users\Lara\Documents\Classes2018\NXC_Code\Main.nxc
